target datalayout = "e-m:e-p270:32:32-p271:32:32-p272:64:64-i64:64-i128:128-f80:128-n8:16:32:64-S128"
target triple = "x86_64-pc-linux-gnu"

%struct.strbuf = type { i64, i64, ptr }
%struct.hashmap = type { ptr, ptr, ptr, i32, i32, i32, i32, i8 }
%struct.index_state = type { ptr, i32, i32, i32, i32, ptr, ptr, ptr, %struct.cache_time, i8, i32, %struct.hashmap, %struct.hashmap, %struct.object_id, ptr, ptr, ptr, ptr, ptr, ptr, ptr }
%struct.cache_time = type { i32, i32 }
%struct.object_id = type { [32 x i8], i32 }
%struct.cache_entry = type { %struct.hashmap_entry, %struct.stat_data, i32, i32, i32, i32, i32, %struct.object_id, [0 x i8] }
%struct.hashmap_entry = type { ptr, i32 }
%struct.stat_data = type { %struct.cache_time, %struct.cache_time, i32, i32, i32, i32, i32 }
%struct.cache_tree = type { i32, %struct.object_id, i32, i32, ptr }
%struct.cache_tree_sub = type { ptr, i32, i32, i32, [0 x i8] }

@strbuf_slopbuf = external global [0 x i8], align 1
@__const.convert_to_sparse_rec.child_path = private unnamed_addr constant %struct.strbuf { i64 0, i64 0, ptr @strbuf_slopbuf }, align 8
@.str.15 = private unnamed_addr constant [11 x i8] c"./strbuf.h\00", align 1
@.str.16 = private unnamed_addr constant [30 x i8] c"strbuf_setlen() beyond buffer\00", align 1

; Function Attrs: inlinehint nounwind uwtable
define internal void @strbuf_setlen(ptr noundef %0, i64 noundef %1) #5 {
  %3 = alloca ptr, align 8
  %4 = alloca i64, align 8
  store ptr %0, ptr %3, align 8, !tbaa !85
  store i64 %1, ptr %4, align 8, !tbaa !60
  %5 = load i64, ptr %4, align 8, !tbaa !60
  %6 = load ptr, ptr %3, align 8, !tbaa !85
  %7 = getelementptr inbounds nuw %struct.strbuf, ptr %6, i32 0, i32 0
  %8 = load i64, ptr %7, align 8, !tbaa !87
  %9 = icmp ne i64 %8, 0
  br i1 %9, label %10, label %15

10:                                               ; preds = %2
  %11 = load ptr, ptr %3, align 8, !tbaa !85
  %12 = getelementptr inbounds nuw %struct.strbuf, ptr %11, i32 0, i32 0
  %13 = load i64, ptr %12, align 8, !tbaa !87
  %14 = sub i64 %13, 1
  br label %16

15:                                               ; preds = %2
  br label %16

16:                                               ; preds = %15, %10
  %17 = phi i64 [ %14, %10 ], [ 0, %15 ]
  %18 = icmp ugt i64 %5, %17
  br i1 %18, label %19, label %20

19:                                               ; preds = %16
  call void (ptr, i32, ptr, ...) @BUG_fl(ptr noundef @.str.15, i32 noundef 167, ptr noundef @.str.16) #11
  unreachable

20:                                               ; preds = %16
  %21 = load i64, ptr %4, align 8, !tbaa !60
  %22 = load ptr, ptr %3, align 8, !tbaa !85
  %23 = getelementptr inbounds nuw %struct.strbuf, ptr %22, i32 0, i32 1
  store i64 %21, ptr %23, align 8, !tbaa !72
  %24 = load ptr, ptr %3, align 8, !tbaa !85
  %25 = getelementptr inbounds nuw %struct.strbuf, ptr %24, i32 0, i32 2
  %26 = load ptr, ptr %25, align 8, !tbaa !70
  %27 = icmp ne ptr %26, @strbuf_slopbuf
  br i1 %27, label %28, label %34

28:                                               ; preds = %20
  %29 = load ptr, ptr %3, align 8, !tbaa !85
  %30 = getelementptr inbounds nuw %struct.strbuf, ptr %29, i32 0, i32 2
  %31 = load ptr, ptr %30, align 8, !tbaa !70
  %32 = load i64, ptr %4, align 8, !tbaa !60
  %33 = getelementptr inbounds nuw i8, ptr %31, i64 %32
  store i8 0, ptr %33, align 1, !tbaa !84
  br label %35

34:                                               ; preds = %20
  br label %35

35:                                               ; preds = %34, %28
  ret void
}

; Function Attrs: nounwind uwtable
define internal ptr @construct_sparse_dir_entry(ptr noundef %0, ptr noundef %1, ptr noundef %2) #0 {
  %4 = alloca ptr, align 8
  %5 = alloca ptr, align 8
  %6 = alloca ptr, align 8
  %7 = alloca ptr, align 8
  store ptr %0, ptr %4, align 8, !tbaa !31
  store ptr %1, ptr %5, align 8, !tbaa !59
  store ptr %2, ptr %6, align 8, !tbaa !61
  call void @llvm.lifetime.start.p0(i64 8, ptr %7) #9
  %8 = load ptr, ptr %4, align 8, !tbaa !31
  %9 = load ptr, ptr %6, align 8, !tbaa !61
  %10 = getelementptr inbounds nuw %struct.cache_tree, ptr %9, i32 0, i32 1
  %11 = load ptr, ptr %5, align 8, !tbaa !59
  %12 = call ptr @make_cache_entry(ptr noundef %8, i32 noundef 16384, ptr noundef %10, ptr noundef %11, i32 noundef 0, i32 noundef 0)
  store ptr %12, ptr %7, align 8, !tbaa !55
  %13 = load ptr, ptr %7, align 8, !tbaa !55
  %14 = getelementptr inbounds nuw %struct.cache_entry, ptr %13, i32 0, i32 3
  %15 = load i32, ptr %14, align 8, !tbaa !9
  %16 = or i32 %15, 1073741824
  store i32 %16, ptr %14, align 8, !tbaa !9
  %17 = load ptr, ptr %7, align 8, !tbaa !55
  call void @llvm.lifetime.end.p0(i64 8, ptr %7) #9
  ret ptr %17
}

; Function Attrs: nounwind uwtable
define internal i32 @convert_to_sparse_rec(ptr noundef %0, i32 noundef %1, i32 noundef %2, i32 noundef %3, ptr noundef %4, i64 noundef %5, ptr noundef %6) #0 {
  %8 = alloca i32, align 4
  %9 = alloca ptr, align 8
  %10 = alloca i32, align 4
  %11 = alloca i32, align 4
  %12 = alloca i32, align 4
  %13 = alloca ptr, align 8
  %14 = alloca i64, align 8
  %15 = alloca ptr, align 8
  %16 = alloca i32, align 4
  %17 = alloca i32, align 4
  %18 = alloca i32, align 4
  %19 = alloca %struct.strbuf, align 8
  %20 = alloca ptr, align 8
  %21 = alloca ptr, align 8
  %22 = alloca i32, align 4
  %23 = alloca i32, align 4
  %24 = alloca i32, align 4
  %25 = alloca i32, align 4
  %26 = alloca ptr, align 8
  %27 = alloca ptr, align 8
  %28 = alloca ptr, align 8
  store ptr %0, ptr %9, align 8, !tbaa !31
  store i32 %1, ptr %10, align 4, !tbaa !9
  store i32 %2, ptr %11, align 4, !tbaa !9
  store i32 %3, ptr %12, align 4, !tbaa !9
  store ptr %4, ptr %13, align 8, !tbaa !59
  store i64 %5, ptr %14, align 8, !tbaa !60
  store ptr %6, ptr %15, align 8, !tbaa !61
  call void @llvm.lifetime.start.p0(i64 4, ptr %16) #9
  call void @llvm.lifetime.start.p0(i64 4, ptr %17) #9
  store i32 1, ptr %17, align 4, !tbaa !9
  call void @llvm.lifetime.start.p0(i64 4, ptr %18) #9
  %29 = load i32, ptr %10, align 4, !tbaa !9
  store i32 %29, ptr %18, align 4, !tbaa !9
  call void @llvm.lifetime.start.p0(i64 24, ptr %19) #9
  call void @llvm.memcpy.p0.p0.i64(ptr align 8 %19, ptr align 8 @__const.convert_to_sparse_rec.child_path, i64 24, i1 false)
  %30 = load ptr, ptr %13, align 8, !tbaa !59
  %31 = load ptr, ptr %9, align 8, !tbaa !31
  %32 = call i32 @path_in_sparse_checkout(ptr noundef %30, ptr noundef %31)
  %33 = icmp ne i32 %32, 0
  br i1 %33, label %34, label %35

34:                                               ; preds = %7
  store i32 0, ptr %17, align 4, !tbaa !9
  br label %35

35:                                               ; preds = %34, %7
  %36 = load i32, ptr %11, align 4, !tbaa !9
  store i32 %36, ptr %16, align 4, !tbaa !9
  br label %37

37:                                               ; preds = %74, %35
  %38 = load i32, ptr %17, align 4, !tbaa !9
  %39 = icmp ne i32 %38, 0
  br i1 %39, label %40, label %44

40:                                               ; preds = %37
  %41 = load i32, ptr %16, align 4, !tbaa !9
  %42 = load i32, ptr %12, align 4, !tbaa !9
  %43 = icmp slt i32 %41, %42
  br label %44

44:                                               ; preds = %40, %37
  %45 = phi i1 [ false, %37 ], [ %43, %40 ]
  br i1 %45, label %46, label %77

46:                                               ; preds = %44
  call void @llvm.lifetime.start.p0(i64 8, ptr %20) #9
  %47 = load ptr, ptr %9, align 8, !tbaa !31
  %48 = getelementptr inbounds nuw %struct.index_state, ptr %47, i32 0, i32 0
  %49 = load ptr, ptr %48, align 8, !tbaa !54
  %50 = load i32, ptr %16, align 4, !tbaa !9
  %51 = sext i32 %50 to i64
  %52 = getelementptr inbounds ptr, ptr %49, i64 %51
  %53 = load ptr, ptr %52, align 8, !tbaa !55
  store ptr %53, ptr %20, align 8, !tbaa !55
  %54 = load ptr, ptr %20, align 8, !tbaa !55
  %55 = getelementptr inbounds nuw %struct.cache_entry, ptr %54, i32 0, i32 3
  %56 = load i32, ptr %55, align 8, !tbaa !9
  %57 = and i32 12288, %56
  %58 = lshr i32 %57, 12
  %59 = icmp ne i32 %58, 0
  br i1 %59, label %72, label %60

60:                                               ; preds = %46
  %61 = load ptr, ptr %20, align 8, !tbaa !55
  %62 = getelementptr inbounds nuw %struct.cache_entry, ptr %61, i32 0, i32 2
  %63 = load i32, ptr %62, align 4, !tbaa !9
  %64 = and i32 %63, 61440
  %65 = icmp eq i32 %64, 57344
  br i1 %65, label %72, label %66

66:                                               ; preds = %60
  %67 = load ptr, ptr %20, align 8, !tbaa !55
  %68 = getelementptr inbounds nuw %struct.cache_entry, ptr %67, i32 0, i32 3
  %69 = load i32, ptr %68, align 8, !tbaa !9
  %70 = and i32 %69, 1073741824
  %71 = icmp ne i32 %70, 0
  br i1 %71, label %73, label %72

72:                                               ; preds = %66, %60, %46
  store i32 0, ptr %17, align 4, !tbaa !9
  br label %73

73:                                               ; preds = %72, %66
  call void @llvm.lifetime.end.p0(i64 8, ptr %20) #9
  br label %74

74:                                               ; preds = %73
  %75 = load i32, ptr %16, align 4, !tbaa !9
  %76 = add nsw i32 %75, 1
  store i32 %76, ptr %16, align 4, !tbaa !9
  br label %37, !llvm.loop !62

77:                                               ; preds = %44
  %78 = load i32, ptr %17, align 4, !tbaa !9
  %79 = icmp ne i32 %78, 0
  br i1 %79, label %80, label %93

80:                                               ; preds = %77
  call void @llvm.lifetime.start.p0(i64 8, ptr %21) #9
  %81 = load ptr, ptr %9, align 8, !tbaa !31
  %82 = load ptr, ptr %13, align 8, !tbaa !59
  %83 = load ptr, ptr %15, align 8, !tbaa !61
  %84 = call ptr @construct_sparse_dir_entry(ptr noundef %81, ptr noundef %82, ptr noundef %83)
  store ptr %84, ptr %21, align 8, !tbaa !55
  %85 = load ptr, ptr %21, align 8, !tbaa !55
  %86 = load ptr, ptr %9, align 8, !tbaa !31
  %87 = getelementptr inbounds nuw %struct.index_state, ptr %86, i32 0, i32 0
  %88 = load ptr, ptr %87, align 8, !tbaa !54
  %89 = load i32, ptr %10, align 4, !tbaa !9
  %90 = add nsw i32 %89, 1
  store i32 %90, ptr %10, align 4, !tbaa !9
  %91 = sext i32 %89 to i64
  %92 = getelementptr inbounds ptr, ptr %88, i64 %91
  store ptr %85, ptr %92, align 8, !tbaa !55
  store i32 1, ptr %8, align 4
  store i32 1, ptr %22, align 4
  call void @llvm.lifetime.end.p0(i64 8, ptr %21) #9
  br label %196

93:                                               ; preds = %77
  %94 = load i32, ptr %11, align 4, !tbaa !9
  store i32 %94, ptr %16, align 4, !tbaa !9
  br label %95

95:                                               ; preds = %191, %189, %93
  %96 = load i32, ptr %16, align 4, !tbaa !9
  %97 = load i32, ptr %12, align 4, !tbaa !9
  %98 = icmp slt i32 %96, %97
  br i1 %98, label %99, label %192

99:                                               ; preds = %95
  call void @llvm.lifetime.start.p0(i64 4, ptr %23) #9
  call void @llvm.lifetime.start.p0(i64 4, ptr %24) #9
  call void @llvm.lifetime.start.p0(i64 4, ptr %25) #9
  store i32 -1, ptr %25, align 4, !tbaa !9
  call void @llvm.lifetime.start.p0(i64 8, ptr %26) #9
  call void @llvm.lifetime.start.p0(i64 8, ptr %27) #9
  call void @llvm.lifetime.start.p0(i64 8, ptr %28) #9
  %100 = load ptr, ptr %9, align 8, !tbaa !31
  %101 = getelementptr inbounds nuw %struct.index_state, ptr %100, i32 0, i32 0
  %102 = load ptr, ptr %101, align 8, !tbaa !54
  %103 = load i32, ptr %16, align 4, !tbaa !9
  %104 = sext i32 %103 to i64
  %105 = getelementptr inbounds ptr, ptr %102, i64 %104
  %106 = load ptr, ptr %105, align 8, !tbaa !55
  store ptr %106, ptr %28, align 8, !tbaa !55
  %107 = load ptr, ptr %28, align 8, !tbaa !55
  %108 = getelementptr inbounds nuw %struct.cache_entry, ptr %107, i32 0, i32 8
  %109 = getelementptr inbounds [0 x i8], ptr %108, i64 0, i64 0
  %110 = load i64, ptr %14, align 8, !tbaa !60
  %111 = getelementptr inbounds nuw i8, ptr %109, i64 %110
  store ptr %111, ptr %26, align 8, !tbaa !59
  %112 = load ptr, ptr %26, align 8, !tbaa !59
  %113 = call ptr @strchr(ptr noundef %112, i32 noundef 47) #10
  store ptr %113, ptr %27, align 8, !tbaa !59
  %114 = load ptr, ptr %27, align 8, !tbaa !59
  %115 = icmp ne ptr %114, null
  br i1 %115, label %116, label %126

116:                                              ; preds = %99
  %117 = load ptr, ptr %15, align 8, !tbaa !61
  %118 = load ptr, ptr %26, align 8, !tbaa !59
  %119 = load ptr, ptr %27, align 8, !tbaa !59
  %120 = load ptr, ptr %26, align 8, !tbaa !59
  %121 = ptrtoint ptr %119 to i64
  %122 = ptrtoint ptr %120 to i64
  %123 = sub i64 %121, %122
  %124 = trunc i64 %123 to i32
  %125 = call i32 @cache_tree_subtree_pos(ptr noundef %117, ptr noundef %118, i32 noundef %124)
  store i32 %125, ptr %25, align 4, !tbaa !9
  br label %126

126:                                              ; preds = %116, %99
  %127 = load i32, ptr %25, align 4, !tbaa !9
  %128 = icmp slt i32 %127, 0
  br i1 %128, label %129, label %140

129:                                              ; preds = %126
  %130 = load ptr, ptr %28, align 8, !tbaa !55
  %131 = load ptr, ptr %9, align 8, !tbaa !31
  %132 = getelementptr inbounds nuw %struct.index_state, ptr %131, i32 0, i32 0
  %133 = load ptr, ptr %132, align 8, !tbaa !54
  %134 = load i32, ptr %10, align 4, !tbaa !9
  %135 = add nsw i32 %134, 1
  store i32 %135, ptr %10, align 4, !tbaa !9
  %136 = sext i32 %134 to i64
  %137 = getelementptr inbounds ptr, ptr %133, i64 %136
  store ptr %130, ptr %137, align 8, !tbaa !55
  %138 = load i32, ptr %16, align 4, !tbaa !9
  %139 = add nsw i32 %138, 1
  store i32 %139, ptr %16, align 4, !tbaa !9
  store i32 6, ptr %22, align 4
  br label %189, !llvm.loop !63

140:                                              ; preds = %126
  call void @strbuf_setlen(ptr noundef %19, i64 noundef 0)
  %141 = load ptr, ptr %28, align 8, !tbaa !55
  %142 = getelementptr inbounds nuw %struct.cache_entry, ptr %141, i32 0, i32 8
  %143 = getelementptr inbounds [0 x i8], ptr %142, i64 0, i64 0
  %144 = load ptr, ptr %27, align 8, !tbaa !59
  %145 = load ptr, ptr %28, align 8, !tbaa !55
  %146 = getelementptr inbounds nuw %struct.cache_entry, ptr %145, i32 0, i32 8
  %147 = getelementptr inbounds [0 x i8], ptr %146, i64 0, i64 0
  %148 = ptrtoint ptr %144 to i64
  %149 = ptrtoint ptr %147 to i64
  %150 = sub i64 %148, %149
  %151 = add nsw i64 %150, 1
  call void @strbuf_add(ptr noundef %19, ptr noundef %143, i64 noundef %151)
  %152 = load ptr, ptr %15, align 8, !tbaa !61
  %153 = getelementptr inbounds nuw %struct.cache_tree, ptr %152, i32 0, i32 4
  %154 = load ptr, ptr %153, align 8, !tbaa !64
  %155 = load i32, ptr %25, align 4, !tbaa !9
  %156 = sext i32 %155 to i64
  %157 = getelementptr inbounds ptr, ptr %154, i64 %156
  %158 = load ptr, ptr %157, align 8, !tbaa !67
  %159 = getelementptr inbounds nuw %struct.cache_tree_sub, ptr %158, i32 0, i32 0
  %160 = load ptr, ptr %159, align 8, !tbaa !61
  %161 = getelementptr inbounds nuw %struct.cache_tree, ptr %160, i32 0, i32 0
  %162 = load i32, ptr %161, align 8, !tbaa !69
  store i32 %162, ptr %24, align 4, !tbaa !9
  %163 = load ptr, ptr %9, align 8, !tbaa !31
  %164 = load i32, ptr %10, align 4, !tbaa !9
  %165 = load i32, ptr %16, align 4, !tbaa !9
  %166 = load i32, ptr %16, align 4, !tbaa !9
  %167 = load i32, ptr %24, align 4, !tbaa !9
  %168 = add nsw i32 %166, %167
  %169 = getelementptr inbounds nuw %struct.strbuf, ptr %19, i32 0, i32 2
  %170 = load ptr, ptr %169, align 8, !tbaa !70
  %171 = getelementptr inbounds nuw %struct.strbuf, ptr %19, i32 0, i32 1
  %172 = load i64, ptr %171, align 8, !tbaa !72
  %173 = load ptr, ptr %15, align 8, !tbaa !61
  %174 = getelementptr inbounds nuw %struct.cache_tree, ptr %173, i32 0, i32 4
  %175 = load ptr, ptr %174, align 8, !tbaa !64
  %176 = load i32, ptr %25, align 4, !tbaa !9
  %177 = sext i32 %176 to i64
  %178 = getelementptr inbounds ptr, ptr %175, i64 %177
  %179 = load ptr, ptr %178, align 8, !tbaa !67
  %180 = getelementptr inbounds nuw %struct.cache_tree_sub, ptr %179, i32 0, i32 0
  %181 = load ptr, ptr %180, align 8, !tbaa !61
  %182 = call i32 @convert_to_sparse_rec(ptr noundef %163, i32 noundef %164, i32 noundef %165, i32 noundef %168, ptr noundef %170, i64 noundef %172, ptr noundef %181)
  store i32 %182, ptr %23, align 4, !tbaa !9
  %183 = load i32, ptr %23, align 4, !tbaa !9
  %184 = load i32, ptr %10, align 4, !tbaa !9
  %185 = add nsw i32 %184, %183
  store i32 %185, ptr %10, align 4, !tbaa !9
  %186 = load i32, ptr %24, align 4, !tbaa !9
  %187 = load i32, ptr %16, align 4, !tbaa !9
  %188 = add nsw i32 %187, %186
  store i32 %188, ptr %16, align 4, !tbaa !9
  store i32 0, ptr %22, align 4
  br label %189

189:                                              ; preds = %140, %129
  call void @llvm.lifetime.end.p0(i64 8, ptr %28) #9
  call void @llvm.lifetime.end.p0(i64 8, ptr %27) #9
  call void @llvm.lifetime.end.p0(i64 8, ptr %26) #9
  call void @llvm.lifetime.end.p0(i64 4, ptr %25) #9
  call void @llvm.lifetime.end.p0(i64 4, ptr %24) #9
  call void @llvm.lifetime.end.p0(i64 4, ptr %23) #9
  %190 = load i32, ptr %22, align 4
  switch i32 %190, label %198 [
    i32 0, label %191
    i32 6, label %95
  ]

191:                                              ; preds = %189
  br label %95, !llvm.loop !63

192:                                              ; preds = %95
  call void @strbuf_release(ptr noundef %19)
  %193 = load i32, ptr %10, align 4, !tbaa !9
  %194 = load i32, ptr %18, align 4, !tbaa !9
  %195 = sub nsw i32 %193, %194
  store i32 %195, ptr %8, align 4
  store i32 1, ptr %22, align 4
  br label %196

196:                                              ; preds = %192, %80
  call void @llvm.lifetime.end.p0(i64 24, ptr %19) #9
  call void @llvm.lifetime.end.p0(i64 4, ptr %18) #9
  call void @llvm.lifetime.end.p0(i64 4, ptr %17) #9
  call void @llvm.lifetime.end.p0(i64 4, ptr %16) #9
  %197 = load i32, ptr %8, align 4
  ret i32 %197

198:                                              ; preds = %189
  unreachable
}