; Function Attrs: nounwind uwtable
define internal fastcc i32 @convert_to_sparse_rec(ptr noundef %0, i32 noundef %1, i32 noundef %2, i32 noundef %3, ptr noundef %4, i64 noundef %5, ptr noundef %6) unnamed_addr #0 {
  %8 = alloca %struct.strbuf, align 8
  call void @llvm.lifetime.start.p0(i64 24, ptr nonnull %8) #12
  call void @llvm.memcpy.p0.p0.i64(ptr noundef nonnull align 8 dereferenceable(24) %8, ptr noundef nonnull align 8 dereferenceable(24) @__const.convert_to_sparse_rec.child_path, i64 24, i1 false)
  %9 = tail call i32 @path_in_sparse_checkout(ptr noundef %4, ptr noundef %0) #12
  %.not = icmp eq i32 %9, 0
  %10 = icmp slt i32 %2, %3
  %11 = and i1 %.not, %10
  br i1 %11, label %.lr.ph, label %._crit_edge

.lr.ph:                                           ; preds = %7
  %12 = load ptr, ptr %0, align 8, !tbaa !49
  %13 = sext i32 %2 to i64
  %14 = sext i32 %3 to i64
  br label %15

15:                                               ; preds = %.lr.ph, %27
  %indvars.iv = phi i64 [ %13, %.lr.ph ], [ %indvars.iv.next, %27 ]
  %16 = getelementptr inbounds ptr, ptr %12, i64 %indvars.iv
  %17 = load ptr, ptr %16, align 8, !tbaa !52
  %18 = getelementptr inbounds nuw i8, ptr %17, i64 56
  %19 = load i32, ptr %18, align 8, !tbaa !28
  %20 = and i32 %19, 12288
  %.not65 = icmp eq i32 %20, 0
  br i1 %.not65, label %21, label %.preheader

21:                                               ; preds = %15
  %22 = getelementptr inbounds nuw i8, ptr %17, i64 52
  %23 = load i32, ptr %22, align 4, !tbaa !28
  %24 = and i32 %23, 61440
  %25 = icmp eq i32 %24, 57344
  %26 = and i32 %19, 1073741824
  %.not66 = icmp eq i32 %26, 0
  %or.cond = or i1 %.not66, %25
  br i1 %or.cond, label %.preheader, label %27

27:                                               ; preds = %21
  %indvars.iv.next = add nsw i64 %indvars.iv, 1
  %28 = icmp slt i64 %indvars.iv.next, %14
  br i1 %28, label %15, label %._crit_edge.thread, !llvm.loop !57

._crit_edge:                                      ; preds = %7
  br i1 %.not, label %._crit_edge.thread, label %.preheader

.preheader:                                       ; preds = %15, %21, %._crit_edge
  br i1 %10, label %.lr.ph71, label %._crit_edge72

.lr.ph71:                                         ; preds = %.preheader
  %29 = getelementptr inbounds nuw i8, ptr %8, i64 8
  %30 = getelementptr inbounds nuw i8, ptr %8, i64 16
  %31 = getelementptr inbounds nuw i8, ptr %6, i64 48
  br label %40

._crit_edge.thread:                               ; preds = %27, %._crit_edge
  %32 = getelementptr inbounds nuw i8, ptr %6, i64 4
  %33 = tail call ptr @make_cache_entry(ptr noundef %0, i32 noundef 16384, ptr noundef nonnull %32, ptr noundef %4, i32 noundef 0, i32 noundef 0) #12
  %34 = getelementptr inbounds nuw i8, ptr %33, i64 56
  %35 = load i32, ptr %34, align 8, !tbaa !28
  %36 = or i32 %35, 1073741824
  store i32 %36, ptr %34, align 8, !tbaa !28
  %37 = load ptr, ptr %0, align 8, !tbaa !49
  %38 = sext i32 %1 to i64
  %39 = getelementptr inbounds ptr, ptr %37, i64 %38
  store ptr %33, ptr %39, align 8, !tbaa !52
  br label %79

40:                                               ; preds = %.lr.ph71, %76
  %.05670 = phi i32 [ %1, %.lr.ph71 ], [ %.1, %76 ]
  %.15869 = phi i32 [ %2, %.lr.ph71 ], [ %.2, %76 ]
  %41 = load ptr, ptr %0, align 8, !tbaa !49
  %42 = sext i32 %.15869 to i64
  %43 = getelementptr inbounds ptr, ptr %41, i64 %42
  %44 = load ptr, ptr %43, align 8, !tbaa !52
  %45 = getelementptr inbounds nuw i8, ptr %44, i64 108
  %46 = getelementptr inbounds nuw i8, ptr %45, i64 %5
  %47 = call ptr @strchr(ptr noundef nonnull dereferenceable(1) %46, i32 noundef 47) #13
  %.not64 = icmp eq ptr %47, null
  br i1 %.not64, label %.thread, label %48

48:                                               ; preds = %40
  %49 = ptrtoint ptr %47 to i64
  %50 = ptrtoint ptr %46 to i64
  %51 = sub i64 %49, %50
  %52 = trunc i64 %51 to i32
  %53 = call i32 @cache_tree_subtree_pos(ptr noundef %6, ptr noundef nonnull %46, i32 noundef %52) #12
  %54 = icmp slt i32 %53, 0
  br i1 %54, label %..thread_crit_edge, label %60

..thread_crit_edge:                               ; preds = %48
  %.pre = load ptr, ptr %0, align 8, !tbaa !49
  br label %.thread

.thread:                                          ; preds = %..thread_crit_edge, %40
  %55 = phi ptr [ %.pre, %..thread_crit_edge ], [ %41, %40 ]
  %56 = add nsw i32 %.05670, 1
  %57 = sext i32 %.05670 to i64
  %58 = getelementptr inbounds ptr, ptr %55, i64 %57
  store ptr %44, ptr %58, align 8, !tbaa !52
  %59 = add nsw i32 %.15869, 1
  br label %76, !llvm.loop !58

60:                                               ; preds = %48
  store i64 0, ptr %29, align 8, !tbaa !59
  %61 = load ptr, ptr %30, align 8, !tbaa !61
  %.not9.i = icmp eq ptr %61, @strbuf_slopbuf
  br i1 %.not9.i, label %strbuf_setlen.exit, label %62

62:                                               ; preds = %60
  store i8 0, ptr %61, align 1, !tbaa !62
  br label %strbuf_setlen.exit

strbuf_setlen.exit:                               ; preds = %60, %62
  %63 = ptrtoint ptr %45 to i64
  %reass.sub = sub i64 %49, %63
  %64 = add i64 %reass.sub, 1
  call void @strbuf_add(ptr noundef nonnull %8, ptr noundef nonnull %45, i64 noundef %64) #12
  %65 = load ptr, ptr %31, align 8, !tbaa !63
  %66 = zext nneg i32 %53 to i64
  %67 = getelementptr inbounds nuw ptr, ptr %65, i64 %66
  %68 = load ptr, ptr %67, align 8, !tbaa !66
  %69 = load ptr, ptr %68, align 8, !tbaa !68
  %70 = load i32, ptr %69, align 8, !tbaa !69
  %71 = add nsw i32 %70, %.15869
  %72 = load ptr, ptr %30, align 8, !tbaa !61
  %73 = load i64, ptr %29, align 8, !tbaa !59
  %74 = call fastcc i32 @convert_to_sparse_rec(ptr noundef nonnull %0, i32 noundef %.05670, i32 noundef %.15869, i32 noundef %71, ptr noundef %72, i64 noundef %73, ptr noundef nonnull %69)
  %75 = add nsw i32 %74, %.05670
  br label %76

76:                                               ; preds = %strbuf_setlen.exit, %.thread
  %.2 = phi i32 [ %59, %.thread ], [ %71, %strbuf_setlen.exit ]
  %.1 = phi i32 [ %56, %.thread ], [ %75, %strbuf_setlen.exit ]
  %77 = icmp slt i32 %.2, %3
  br i1 %77, label %40, label %._crit_edge72

._crit_edge72:                                    ; preds = %76, %.preheader
  %.056.lcssa = phi i32 [ %1, %.preheader ], [ %.1, %76 ]
  call void @strbuf_release(ptr noundef nonnull %8) #12
  %78 = sub nsw i32 %.056.lcssa, %1
  br label %79

79:                                               ; preds = %._crit_edge72, %._crit_edge.thread
  %.0 = phi i32 [ 1, %._crit_edge.thread ], [ %78, %._crit_edge72 ]
  call void @llvm.lifetime.end.p0(i64 24, ptr nonnull %8) #12
  ret i32 %.0
}